target datalayout = "e-m:e-p270:32:32-p271:32:32-p272:64:64-i64:64-i128:128-f80:128-n8:16:32:64-S128"
target triple = "x86_64-pc-linux-gnu"

%class.ZStatCounter = type { %class.ZStatIterableValue, %class.ZStatSampler }
%class.ZStatIterableValue = type { %class.ZStatValue, ptr }
%class.ZStatValue = type { ptr, ptr, i32, i32 }
%class.ZStatSampler = type { %class.ZStatIterableValue.0, ptr }
%class.ZStatIterableValue.0 = type { %class.ZStatValue, ptr }
%struct.anon = type { i64, i64 }
%class.ZSafePageRecycle = type { ptr, %class.ZActivatedArray }
%class.ZActivatedArray = type { ptr, i64, %class.GrowableArrayCHeap }
%class.GrowableArrayCHeap = type { %class.GrowableArrayWithAllocator }
%class.GrowableArrayWithAllocator = type { %class.GrowableArrayView }
%class.GrowableArrayView = type { %class.GrowableArrayBase, ptr }
%class.GrowableArrayBase = type { i32, i32 }
%class.ZPage = type { i8, i8, i8, i8, i32, i32, %class.ZVirtualMemory, i64, %class.ZLiveMap, %class.ZRememberedSet, i64, %class.ZPhysicalMemory, %class.ZListNode }
%class.ZVirtualMemory = type { i64, i64 }
%class.ZLiveMap = type { i32, i32, i64, i64, i64, %class.ZBitMap, i64 }
%class.ZBitMap = type { %class.CHeapBitMap.base, [7 x i8] }
%class.CHeapBitMap.base = type <{ %class.GrowableBitMap, i8 }>
%class.GrowableBitMap = type { %class.BitMap }
%class.BitMap = type { ptr, i64 }
%class.ZRememberedSet = type { [2 x %class.ZMovableBitMap] }
%class.ZMovableBitMap = type { %class.CHeapBitMap.base, [7 x i8] }
%class.ZPhysicalMemory = type { %class.GrowableArrayCHeap.1 }
%class.GrowableArrayCHeap.1 = type { %class.GrowableArrayWithAllocator.2 }
%class.GrowableArrayWithAllocator.2 = type { %class.GrowableArrayView.3 }
%class.GrowableArrayView.3 = type { %class.GrowableArrayBase, ptr }
%class.ZListNode = type { ptr, ptr }
%class.ZPageAllocator = type <{ %class.ZLock, %class.ZPageCache, %class.ZVirtualMemoryManager, %class.ZPhysicalMemoryManager, i64, i64, i64, i64, i64, i64, i64, [2 x i64], [2 x %struct.anon], %class.ZList.7, ptr, ptr, %class.ZSafeDelete, %class.ZSafePageRecycle, i8, [7 x i8] }>
%class.ZLock = type { %class.PlatformMutex }
%class.PlatformMutex = type { %union.pthread_mutex_t }
%union.pthread_mutex_t = type { %struct.__pthread_mutex_s }
%struct.__pthread_mutex_s = type { i32, i32, i32, i32, i32, i16, i16, %struct.__pthread_internal_list }
%struct.__pthread_internal_list = type { ptr, ptr }
%class.ZPageCache = type { %class.ZValue, %class.ZList, %class.ZList, i64 }
%class.ZValue = type { i64 }
%class.ZList = type { %class.ZListNode, i64 }
%class.ZVirtualMemoryManager = type <{ %class.ZMemoryManager, i64, i8, [7 x i8] }>
%class.ZMemoryManager = type { %class.ZLock, %class.ZList.5, %"struct.ZMemoryManager::Callbacks" }
%class.ZList.5 = type { %class.ZListNode.6, i64 }
%class.ZListNode.6 = type { ptr, ptr }
%"struct.ZMemoryManager::Callbacks" = type { ptr, ptr, ptr, ptr, ptr, ptr }
%class.ZPhysicalMemoryManager = type { %class.ZPhysicalMemoryBacking, %class.ZMemoryManager }
%class.ZPhysicalMemoryBacking = type <{ i32, [4 x i8], i64, i64, i64, i64, i8, [7 x i8] }>
%class.ZList.7 = type { %class.ZListNode.8, i64 }
%class.ZListNode.8 = type { ptr, ptr }
%class.ZSafeDelete = type { %class.ZActivatedArray }
%class.ZAllocationFlags = type { i8 }
%class.ZPageAllocation = type { i8, i64, %class.ZAllocationFlags, i32, i32, i64, i64, %class.ZList, %class.ZListNode.8, %class.ZFuture }
%class.ZFuture = type <{ %class.Semaphore, i8, [7 x i8] }>
%class.Semaphore = type { %class.PosixSemaphore }
%class.PosixSemaphore = type { %union.sem_t }
%union.sem_t = type { i64, [24 x i8] }
%class.anon.40 = type { i8 }

@_ZL18ZCounterDefragment = internal global %class.ZStatCounter zeroinitializer, align 8

; Function Attrs: mustprogress nounwind uwtable
define linkonce_odr hidden noundef i64 @_Z6untype7zoffset(i64 noundef %0) #1 comdat {
  %2 = alloca i64, align 8
  %3 = alloca i64, align 8
  store i64 %0, ptr %2, align 8
  %4 = load i64, ptr %2, align 8
  store i64 %4, ptr %3, align 8
  %5 = load i64, ptr %3, align 8
  ret i64 %5
}

; Function Attrs: mustprogress nounwind uwtable
define linkonce_odr hidden noundef i64 @_Z6untype11zoffset_end(i64 noundef %0) #1 comdat {
  %2 = alloca i64, align 8
  %3 = alloca i64, align 8
  store i64 %0, ptr %2, align 8
  %4 = load i64, ptr %2, align 8
  store i64 %4, ptr %3, align 8
  %5 = load i64, ptr %3, align 8
  ret i64 %5
}

; Function Attrs: mustprogress nounwind uwtable
define linkonce_odr hidden noundef i64 @_ZNK14ZVirtualMemory5startEv(ptr noundef nonnull align 8 dereferenceable(16) %0) #1 comdat align 2 {
  %2 = alloca ptr, align 8
  store ptr %0, ptr %2, align 8
  %3 = load ptr, ptr %2, align 8
  %4 = getelementptr inbounds %class.ZVirtualMemory, ptr %3, i32 0, i32 0
  %5 = load i64, ptr %4, align 8
  ret i64 %5
}

; Function Attrs: mustprogress nounwind uwtable
define linkonce_odr hidden noundef i64 @_Zmi11zoffset_end7zoffset(i64 noundef %0, i64 noundef %1) #1 comdat {
  %3 = alloca i64, align 8
  %4 = alloca i64, align 8
  store i64 %0, ptr %3, align 8
  store i64 %1, ptr %4, align 8
  %5 = load i64, ptr %3, align 8
  %6 = call noundef i64 @_Z6untype11zoffset_end(i64 noundef %5)
  %7 = load i64, ptr %4, align 8
  %8 = call noundef i64 @_Z6untype7zoffset(i64 noundef %7)
  %9 = sub i64 %6, %8
  ret i64 %9
}

; Function Attrs: mustprogress nounwind uwtable
define linkonce_odr hidden noundef i64 @_ZZNK5ZListI5ZPageE13cast_to_outerEP9ZListNodeIS0_EENKUlvE_clEv(ptr noundef nonnull align 1 dereferenceable(1) %0) #1 comdat align 2 {
  %2 = alloca ptr, align 8
  %3 = alloca [192 x i8], align 16
  %4 = alloca ptr, align 8
  %5 = alloca ptr, align 8
  store ptr %0, ptr %2, align 8
  %6 = getelementptr inbounds [192 x i8], ptr %3, i64 0, i64 0
  store ptr %6, ptr %4, align 8
  %7 = load ptr, ptr %4, align 8
  %8 = getelementptr inbounds %class.ZPage, ptr %7, i32 0, i32 12
  store ptr %8, ptr %5, align 8
  %9 = load ptr, ptr %5, align 8
  %10 = getelementptr inbounds [192 x i8], ptr %3, i64 0, i64 0
  %11 = ptrtoint ptr %9 to i64
  %12 = ptrtoint ptr %10 to i64
  %13 = sub i64 %11, %12
  ret i64 %13
}

; Function Attrs: mustprogress nounwind uwtable
define linkonce_odr hidden void @_ZNK9ZListNodeI5ZPageE12verify_linksEv(ptr noundef nonnull align 8 dereferenceable(16) %0) #1 comdat align 2 {
  %2 = alloca ptr, align 8
  store ptr %0, ptr %2, align 8
  ret void
}

; Function Attrs: mustprogress nounwind uwtable
define linkonce_odr hidden noundef i64 @_ZNK21ZVirtualMemoryManager24lowest_available_addressEv(ptr noundef nonnull align 8 dereferenceable(121) %0) #1 comdat align 2 {
  %2 = alloca ptr, align 8
  store ptr %0, ptr %2, align 8
  %3 = load ptr, ptr %2, align 8
  %4 = getelementptr inbounds %class.ZVirtualMemoryManager, ptr %3, i32 0, i32 0
  %5 = call noundef i64 @_ZNK14ZMemoryManager16peek_low_addressEv(ptr noundef nonnull align 8 dereferenceable(112) %4)
  ret i64 %5
}

; Function Attrs: mustprogress nounwind uwtable
define linkonce_odr hidden noundef i64 @_Z10to_zoffsetm(i64 noundef %0) #1 comdat {
  %2 = alloca i64, align 8
  store i64 %0, ptr %2, align 8
  %3 = load i64, ptr %2, align 8
  ret i64 %3
}

; Function Attrs: mustprogress nounwind uwtable
define linkonce_odr hidden noundef i64 @_ZNK21ZVirtualMemoryManager8reservedEv(ptr noundef nonnull align 8 dereferenceable(121) %0) #1 comdat align 2 {
  %2 = alloca ptr, align 8
  store ptr %0, ptr %2, align 8
  %3 = load ptr, ptr %2, align 8
  %4 = getelementptr inbounds %class.ZVirtualMemoryManager, ptr %3, i32 0, i32 1
  %5 = load i64, ptr %4, align 8
  ret i64 %5
}

; Function Attrs: mustprogress nounwind uwtable
define linkonce_odr hidden noundef i64 @_ZNK5ZPage5startEv(ptr noundef nonnull align 8 dereferenceable(192) %0) #1 comdat align 2 {
  %2 = alloca ptr, align 8
  store ptr %0, ptr %2, align 8
  %3 = load ptr, ptr %2, align 8
  %4 = getelementptr inbounds %class.ZPage, ptr %3, i32 0, i32 6
  %5 = call noundef i64 @_ZNK14ZVirtualMemory5startEv(ptr noundef nonnull align 8 dereferenceable(16) %4)
  ret i64 %5
}

; Function Attrs: mustprogress nounwind uwtable
define linkonce_odr hidden noundef i64 @_ZNK14ZVirtualMemory4sizeEv(ptr noundef nonnull align 8 dereferenceable(16) %0) #1 comdat align 2 {
  %2 = alloca ptr, align 8
  store ptr %0, ptr %2, align 8
  %3 = load ptr, ptr %2, align 8
  %4 = getelementptr inbounds %class.ZVirtualMemory, ptr %3, i32 0, i32 1
  %5 = load i64, ptr %4, align 8
  %6 = getelementptr inbounds %class.ZVirtualMemory, ptr %3, i32 0, i32 0
  %7 = load i64, ptr %6, align 8
  %8 = call noundef i64 @_Zmi11zoffset_end7zoffset(i64 noundef %5, i64 noundef %7)
  ret i64 %8
}

; Function Attrs: mustprogress nounwind uwtable
define linkonce_odr hidden noundef ptr @_ZNK5ZListI5ZPageE13cast_to_outerEP9ZListNodeIS0_E(ptr noundef nonnull align 8 dereferenceable(24) %0, ptr noundef %1) #1 comdat align 2 {
  %3 = alloca ptr, align 8
  %4 = alloca ptr, align 8
  %5 = alloca %class.anon.40, align 1
  store ptr %0, ptr %3, align 8
  store ptr %1, ptr %4, align 8
  %6 = load ptr, ptr %4, align 8
  %7 = ptrtoint ptr %6 to i64
  %8 = call noundef i64 @_ZZNK5ZListI5ZPageE13cast_to_outerEP9ZListNodeIS0_EENKUlvE_clEv(ptr noundef nonnull align 1 dereferenceable(1) %5)
  %9 = sub i64 %7, %8
  %10 = inttoptr i64 %9 to ptr
  ret ptr %10
}

; Function Attrs: mustprogress nounwind uwtable
define linkonce_odr hidden noundef zeroext i1 @_ZNK5ZListI5ZPageE8is_emptyEv(ptr noundef nonnull align 8 dereferenceable(24) %0) #1 comdat align 2 {
  %2 = alloca ptr, align 8
  store ptr %0, ptr %2, align 8
  %3 = load ptr, ptr %2, align 8
  %4 = call noundef i64 @_ZNK5ZListI5ZPageE4sizeEv(ptr noundef nonnull align 8 dereferenceable(24) %3)
  %5 = icmp eq i64 %4, 0
  ret i1 %5
}

; Function Attrs: mustprogress nounwind uwtable
define linkonce_odr hidden void @_ZNK5ZListI5ZPageE11verify_headEv(ptr noundef nonnull align 8 dereferenceable(24) %0) #1 comdat align 2 {
  %2 = alloca ptr, align 8
  store ptr %0, ptr %2, align 8
  %3 = load ptr, ptr %2, align 8
  %4 = getelementptr inbounds %class.ZList, ptr %3, i32 0, i32 0
  call void @_ZNK9ZListNodeI5ZPageE12verify_linksEv(ptr noundef nonnull align 8 dereferenceable(16) %4)
  ret void
}

; Function Attrs: mustprogress nounwind uwtable
define hidden noundef zeroext i1 @_ZNK14ZPageAllocator17should_defragmentEPK5ZPage(ptr noundef nonnull align 8 dereferenceable(609) %0, ptr noundef %1) #1 align 2 {
  %3 = alloca ptr, align 8
  %4 = alloca ptr, align 8
  store ptr %0, ptr %3, align 8
  store ptr %1, ptr %4, align 8
  %5 = load ptr, ptr %3, align 8
  %6 = load ptr, ptr %4, align 8
  %7 = call noundef zeroext i8 @_ZNK5ZPage4typeEv(ptr noundef nonnull align 8 dereferenceable(192) %6)
  %8 = icmp eq i8 %7, 0
  br i1 %8, label %9, label %23

9:                                                ; preds = %2
  %10 = load ptr, ptr %4, align 8
  %11 = call noundef i64 @_ZNK5ZPage5startEv(ptr noundef nonnull align 8 dereferenceable(192) %10)
  %12 = getelementptr inbounds %class.ZPageAllocator, ptr %5, i32 0, i32 2
  %13 = call noundef i64 @_ZNK21ZVirtualMemoryManager8reservedEv(ptr noundef nonnull align 8 dereferenceable(121) %12)
  %14 = udiv i64 %13, 2
  %15 = call noundef i64 @_Z10to_zoffsetm(i64 noundef %14)
  %16 = icmp uge i64 %11, %15
  br i1 %16, label %17, label %23

17:                                               ; preds = %9
  %18 = load ptr, ptr %4, align 8
  %19 = call noundef i64 @_ZNK5ZPage5startEv(ptr noundef nonnull align 8 dereferenceable(192) %18)
  %20 = getelementptr inbounds %class.ZPageAllocator, ptr %5, i32 0, i32 2
  %21 = call noundef i64 @_ZNK21ZVirtualMemoryManager24lowest_available_addressEv(ptr noundef nonnull align 8 dereferenceable(121) %20)
  %22 = icmp ugt i64 %19, %21
  br label %23

23:                                               ; preds = %17, %9, %2
  %24 = phi i1 [ false, %9 ], [ false, %2 ], [ %22, %17 ]
  ret i1 %24
}

; Function Attrs: mustprogress nounwind uwtable
define linkonce_odr hidden noundef i64 @_ZNK15ZPageAllocation4sizeEv(ptr noundef nonnull align 8 dereferenceable(128) %0) #1 comdat align 2 {
  %2 = alloca ptr, align 8
  store ptr %0, ptr %2, align 8
  %3 = load ptr, ptr %2, align 8
  %4 = getelementptr inbounds %class.ZPageAllocation, ptr %3, i32 0, i32 1
  %5 = load i64, ptr %4, align 8
  ret i64 %5
}

; Function Attrs: mustprogress nounwind uwtable
define linkonce_odr hidden noundef i64 @_ZNK5ZPage4sizeEv(ptr noundef nonnull align 8 dereferenceable(192) %0) #1 comdat align 2 {
  %2 = alloca ptr, align 8
  store ptr %0, ptr %2, align 8
  %3 = load ptr, ptr %2, align 8
  %4 = getelementptr inbounds %class.ZPage, ptr %3, i32 0, i32 6
  %5 = call noundef i64 @_ZNK14ZVirtualMemory4sizeEv(ptr noundef nonnull align 8 dereferenceable(16) %4)
  ret i64 %5
}

; Function Attrs: mustprogress nounwind uwtable
define linkonce_odr hidden noundef zeroext i8 @_ZNK15ZPageAllocation4typeEv(ptr noundef nonnull align 8 dereferenceable(128) %0) #1 comdat align 2 {
  %2 = alloca ptr, align 8
  store ptr %0, ptr %2, align 8
  %3 = load ptr, ptr %2, align 8
  %4 = getelementptr inbounds %class.ZPageAllocation, ptr %3, i32 0, i32 0
  %5 = load i8, ptr %4, align 8
  ret i8 %5
}

; Function Attrs: mustprogress nounwind uwtable
define linkonce_odr hidden noundef zeroext i8 @_ZNK5ZPage4typeEv(ptr noundef nonnull align 8 dereferenceable(192) %0) #1 comdat align 2 {
  %2 = alloca ptr, align 8
  store ptr %0, ptr %2, align 8
  %3 = load ptr, ptr %2, align 8
  %4 = getelementptr inbounds %class.ZPage, ptr %3, i32 0, i32 0
  %5 = load i8, ptr %4, align 8
  ret i8 %5
}

; Function Attrs: mustprogress nounwind uwtable
define linkonce_odr hidden noundef ptr @_ZNK5ZListI5ZPageE5firstEv(ptr noundef nonnull align 8 dereferenceable(24) %0) #1 comdat align 2 {
  %2 = alloca ptr, align 8
  store ptr %0, ptr %2, align 8
  %3 = load ptr, ptr %2, align 8
  %4 = call noundef zeroext i1 @_ZNK5ZListI5ZPageE8is_emptyEv(ptr noundef nonnull align 8 dereferenceable(24) %3)
  br i1 %4, label %5, label %6

5:                                                ; preds = %1
  br label %11

6:                                                ; preds = %1
  %7 = getelementptr inbounds %class.ZList, ptr %3, i32 0, i32 0
  %8 = getelementptr inbounds %class.ZListNode, ptr %7, i32 0, i32 0
  %9 = load ptr, ptr %8, align 8
  %10 = call noundef ptr @_ZNK5ZListI5ZPageE13cast_to_outerEP9ZListNodeIS0_E(ptr noundef nonnull align 8 dereferenceable(24) %3, ptr noundef %9)
  br label %11

11:                                               ; preds = %6, %5
  %12 = phi ptr [ null, %5 ], [ %10, %6 ]
  ret ptr %12
}

; Function Attrs: mustprogress nounwind uwtable
define linkonce_odr hidden noundef i64 @_ZNK5ZListI5ZPageE4sizeEv(ptr noundef nonnull align 8 dereferenceable(24) %0) #1 comdat align 2 {
  %2 = alloca ptr, align 8
  store ptr %0, ptr %2, align 8
  %3 = load ptr, ptr %2, align 8
  call void @_ZNK5ZListI5ZPageE11verify_headEv(ptr noundef nonnull align 8 dereferenceable(24) %3)
  %4 = getelementptr inbounds %class.ZList, ptr %3, i32 0, i32 1
  %5 = load i64, ptr %4, align 8
  ret i64 %5
}

; Function Attrs: mustprogress nounwind uwtable
define linkonce_odr hidden noundef ptr @_ZN15ZPageAllocation5pagesEv(ptr noundef nonnull align 8 dereferenceable(128) %0) #1 comdat align 2 {
  %2 = alloca ptr, align 8
  store ptr %0, ptr %2, align 8
  %3 = load ptr, ptr %2, align 8
  %4 = getelementptr inbounds %class.ZPageAllocation, ptr %3, i32 0, i32 7
  ret ptr %4
}

; Function Attrs: mustprogress nounwind uwtable
define hidden noundef zeroext i1 @_ZNK14ZPageAllocator18is_alloc_satisfiedEP15ZPageAllocation(ptr noundef nonnull align 8 dereferenceable(609) %0, ptr noundef %1) #1 align 2 {
  %3 = alloca i1, align 1
  %4 = alloca ptr, align 8
  %5 = alloca ptr, align 8
  %6 = alloca ptr, align 8
  store ptr %0, ptr %4, align 8
  store ptr %1, ptr %5, align 8
  %7 = load ptr, ptr %4, align 8
  %8 = load ptr, ptr %5, align 8
  %9 = call noundef ptr @_ZN15ZPageAllocation5pagesEv(ptr noundef nonnull align 8 dereferenceable(128) %8)
  %10 = call noundef i64 @_ZNK5ZListI5ZPageE4sizeEv(ptr noundef nonnull align 8 dereferenceable(24) %9)
  %11 = icmp ne i64 %10, 1
  br i1 %11, label %12, label %13

12:                                               ; preds = %2
  store i1 false, ptr %3, align 1
  br label %34

13:                                               ; preds = %2
  %14 = load ptr, ptr %5, align 8
  %15 = call noundef ptr @_ZN15ZPageAllocation5pagesEv(ptr noundef nonnull align 8 dereferenceable(128) %14)
  %16 = call noundef ptr @_ZNK5ZListI5ZPageE5firstEv(ptr noundef nonnull align 8 dereferenceable(24) %15)
  store ptr %16, ptr %6, align 8
  %17 = load ptr, ptr %6, align 8
  %18 = call noundef zeroext i8 @_ZNK5ZPage4typeEv(ptr noundef nonnull align 8 dereferenceable(192) %17)
  %19 = load ptr, ptr %5, align 8
  %20 = call noundef zeroext i8 @_ZNK15ZPageAllocation4typeEv(ptr noundef nonnull align 8 dereferenceable(128) %19)
  %21 = icmp ne i8 %18, %20
  br i1 %21, label %28, label %22

22:                                               ; preds = %13
  %23 = load ptr, ptr %6, align 8
  %24 = call noundef i64 @_ZNK5ZPage4sizeEv(ptr noundef nonnull align 8 dereferenceable(192) %23)
  %25 = load ptr, ptr %5, align 8
  %26 = call noundef i64 @_ZNK15ZPageAllocation4sizeEv(ptr noundef nonnull align 8 dereferenceable(128) %25)
  %27 = icmp ne i64 %24, %26
  br i1 %27, label %28, label %29

28:                                               ; preds = %22, %13
  store i1 false, ptr %3, align 1
  br label %34

29:                                               ; preds = %22
  %30 = load ptr, ptr %6, align 8
  %31 = call noundef zeroext i1 @_ZNK14ZPageAllocator17should_defragmentEPK5ZPage(ptr noundef nonnull align 8 dereferenceable(609) %7, ptr noundef %30)
  br i1 %31, label %32, label %33

32:                                               ; preds = %29
  call void @_Z8ZStatIncRK12ZStatCounterm(ptr noundef nonnull align 8 dereferenceable(72) @_ZL18ZCounterDefragment, i64 noundef 1)
  store i1 false, ptr %3, align 1
  br label %34

33:                                               ; preds = %29
  store i1 true, ptr %3, align 1
  br label %34

34:                                               ; preds = %33, %32, %28, %12
  %35 = load i1, ptr %3, align 1
  ret i1 %35
}