; Function Attrs: mustprogress nounwind uwtable
define hidden noundef zeroext i1 @_ZNK14ZPageAllocator18is_alloc_satisfiedEP15ZPageAllocation(ptr noundef nonnull align 8 dereferenceable(609) %0, ptr nocapture noundef readonly %1) local_unnamed_addr #1 align 2 {
  %3 = getelementptr inbounds i8, ptr %1, i64 64
  %4 = load i64, ptr %3, align 8
  %.not = icmp eq i64 %4, 1
  br i1 %.not, label %5, label %_ZNK14ZPageAllocator17should_defragmentEPK5ZPage.exit.thread

5:                                                ; preds = %2
  %6 = getelementptr inbounds i8, ptr %1, i64 48
  %7 = load ptr, ptr %6, align 8
  %8 = ptrtoint ptr %7 to i64
  %9 = add i64 %8, -176
  %10 = inttoptr i64 %9 to ptr
  %11 = load i8, ptr %10, align 8
  %12 = load i8, ptr %1, align 8
  %.not9 = icmp eq i8 %11, %12
  br i1 %.not9, label %13, label %_ZNK14ZPageAllocator17should_defragmentEPK5ZPage.exit.thread

13:                                               ; preds = %5
  %14 = getelementptr inbounds i8, ptr %10, i64 16
  %15 = getelementptr inbounds i8, ptr %10, i64 24
  %16 = load i64, ptr %15, align 8
  %17 = load i64, ptr %14, align 8
  %18 = sub i64 %16, %17
  %19 = getelementptr inbounds i8, ptr %1, i64 8
  %20 = load i64, ptr %19, align 8
  %.not10 = icmp eq i64 %18, %20
  br i1 %.not10, label %21, label %_ZNK14ZPageAllocator17should_defragmentEPK5ZPage.exit.thread

21:                                               ; preds = %13
  %22 = icmp eq i8 %11, 0
  br i1 %22, label %23, label %_ZNK14ZPageAllocator17should_defragmentEPK5ZPage.exit.thread

23:                                               ; preds = %21
  %24 = getelementptr inbounds i8, ptr %0, i64 216
  %25 = load i64, ptr %24, align 8
  %26 = lshr i64 %25, 1
  %.not.i = icmp ult i64 %17, %26
  br i1 %.not.i, label %_ZNK14ZPageAllocator17should_defragmentEPK5ZPage.exit.thread, label %_ZNK14ZPageAllocator17should_defragmentEPK5ZPage.exit

_ZNK14ZPageAllocator17should_defragmentEPK5ZPage.exit: ; preds = %23
  %27 = getelementptr inbounds i8, ptr %0, i64 104
  %28 = tail call noundef i64 @_ZNK14ZMemoryManager16peek_low_addressEv(ptr noundef nonnull align 8 dereferenceable(112) %27) #13
  %29 = icmp ugt i64 %17, %28
  br i1 %29, label %30, label %_ZNK14ZPageAllocator17should_defragmentEPK5ZPage.exit.thread

30:                                               ; preds = %_ZNK14ZPageAllocator17should_defragmentEPK5ZPage.exit
  tail call void @_Z8ZStatIncRK12ZStatCounterm(ptr noundef nonnull align 8 dereferenceable(72) @_ZL18ZCounterDefragment, i64 noundef 1) #13
  br label %_ZNK14ZPageAllocator17should_defragmentEPK5ZPage.exit.thread

_ZNK14ZPageAllocator17should_defragmentEPK5ZPage.exit.thread: ; preds = %21, %23, %_ZNK14ZPageAllocator17should_defragmentEPK5ZPage.exit, %5, %13, %2, %30
  %.0 = phi i1 [ false, %30 ], [ false, %2 ], [ false, %13 ], [ false, %5 ], [ true, %_ZNK14ZPageAllocator17should_defragmentEPK5ZPage.exit ], [ true, %23 ], [ true, %21 ]
  ret i1 %.0
}